; Function Attrs: nounwind uwtable
define range(i32 -1, 1) i32 @H5Aget_info(i64 noundef %0, ptr noundef %1) local_unnamed_addr #0 {
  %3 = alloca %struct.H5VL_attr_get_args_t, align 8
  %4 = load i8, ptr @H5_libinit_g, align 1
  %5 = trunc i8 %4 to i1
  %6 = load i8, ptr @H5_libterm_g, align 1
  %7 = trunc i8 %6 to i1
  %8 = select i1 %5, i1 true, i1 %7
  br i1 %8, label %16, label %9

9:                                                ; preds = %2
  %10 = tail call i32 @H5_init_library() #4
  %11 = icmp slt i32 %10, 0
  br i1 %11, label %12, label %16

12:                                               ; preds = %9
  %13 = load i64, ptr @H5E_FUNC_g, align 8
  %14 = load i64, ptr @H5E_CANTINIT_g, align 8
  %15 = tail call i32 (ptr, ptr, i32, i64, i64, ptr, ...) @H5E_printf_stack(ptr noundef nonnull @.str, ptr noundef nonnull @__func__.H5Aget_info, i32 noundef 1390, i64 noundef %13, i64 noundef %14, ptr noundef nonnull @.str.1) #4
  br label %.thread24

16:                                               ; preds = %9, %2
  %17 = tail call i32 @H5CX_push() #4
  %18 = icmp slt i32 %17, 0
  br i1 %18, label %19, label %23

19:                                               ; preds = %16
  %20 = load i64, ptr @H5E_FUNC_g, align 8
  %21 = load i64, ptr @H5E_CANTSET_g, align 8
  %22 = tail call i32 (ptr, ptr, i32, i64, i64, ptr, ...) @H5E_printf_stack(ptr noundef nonnull @.str, ptr noundef nonnull @__func__.H5Aget_info, i32 noundef 1390, i64 noundef %20, i64 noundef %21, ptr noundef nonnull @.str.2) #4
  br label %.thread24

23:                                               ; preds = %16
  %24 = tail call i32 @H5E_clear_stack() #4
  %25 = tail call ptr @H5I_object_verify(i64 noundef %0, i32 noundef 7) #4
  %26 = icmp eq ptr %25, null
  br i1 %26, label %27, label %31

27:                                               ; preds = %23
  %28 = load i64, ptr @H5E_ARGS_g, align 8
  %29 = load i64, ptr @H5E_BADTYPE_g, align 8
  %30 = tail call i32 (ptr, ptr, i32, i64, i64, ptr, ...) @H5E_printf_stack(ptr noundef nonnull @.str, ptr noundef nonnull @__func__.H5Aget_info, i32 noundef 1394, i64 noundef %28, i64 noundef %29, ptr noundef nonnull @.str.37) #4
  br label %.thread30

31:                                               ; preds = %23
  %.not = icmp eq ptr %1, null
  br i1 %.not, label %32, label %36

32:                                               ; preds = %31
  %33 = load i64, ptr @H5E_ARGS_g, align 8
  %34 = load i64, ptr @H5E_BADVALUE_g, align 8
  %35 = tail call i32 (ptr, ptr, i32, i64, i64, ptr, ...) @H5E_printf_stack(ptr noundef nonnull @.str, ptr noundef nonnull @__func__.H5Aget_info, i32 noundef 1396, i64 noundef %33, i64 noundef %34, ptr noundef nonnull @.str.52) #4
  br label %.thread30

36:                                               ; preds = %31
  store i32 1, ptr %3, align 8
  %37 = getelementptr inbounds i8, ptr %3, i64 8
  %38 = getelementptr inbounds i8, ptr %3, i64 12
  store i32 0, ptr %38, align 4
  %39 = tail call i32 @H5I_get_type(i64 noundef %0) #4
  store i32 %39, ptr %37, align 8
  %40 = getelementptr inbounds i8, ptr %3, i64 48
  store ptr null, ptr %40, align 8
  %41 = getelementptr inbounds i8, ptr %3, i64 56
  store ptr %1, ptr %41, align 8
  %42 = load i64, ptr @H5P_LST_DATASET_XFER_ID_g, align 8
  %43 = call i32 @H5VL_attr_get(ptr noundef nonnull %25, ptr noundef nonnull %3, i64 noundef %42, ptr noundef null) #4
  %44 = icmp slt i32 %43, 0
  br i1 %44, label %45, label %50

45:                                               ; preds = %36
  %46 = load i64, ptr @H5E_ATTR_g, align 8
  %47 = load i64, ptr @H5E_CANTGET_g, align 8
  %48 = call i32 (ptr, ptr, i32, i64, i64, ptr, ...) @H5E_printf_stack(ptr noundef nonnull @.str, ptr noundef nonnull @__func__.H5Aget_info, i32 noundef 1407, i64 noundef %46, i64 noundef %47, ptr noundef nonnull @.str.53) #4
  br label %.thread30

.thread30:                                        ; preds = %32, %45, %27
  %49 = call i32 @H5CX_pop(i1 noundef zeroext true) #4
  br label %.thread24

50:                                               ; preds = %36
  %51 = call i32 @H5CX_pop(i1 noundef zeroext true) #4
  br label %53

.thread24:                                        ; preds = %19, %12, %.thread30
  %52 = call i32 @H5E_dump_api_stack() #4
  br label %53

53:                                               ; preds = %50, %.thread24
  %.0131927 = phi i32 [ -1, %.thread24 ], [ 0, %50 ]
  ret i32 %.0131927
}